(dp0
S'a'
p1
S'Artifical'
p2
sS'c'
p3
S'Fin-Concept'
p4
sS'b'
p5
S'Event'
p6
sS'e'
p7
S'Organization'
p8
sS'd'
p9
S'Location'
p10
sS'g'
p11
S'Sector'
p12
sS'f'
p13
S'Person'
p14
sS'h'
p15
S'Other'
p16
s.